; Function Attrs: mustprogress nounwind uwtable
define void @_ZN5arrow8internal10ThreadPoolD2Ev(ptr noundef nonnull align 8 captures(none) dereferenceable(33) initializes((0, 8)) %0) unnamed_addr #4 align 2 personality ptr @__gxx_personality_v0 {
  %2 = alloca %"class.arrow::Status", align 8
  store ptr getelementptr inbounds nuw inrange(-16, 56) (i8, ptr @_ZTVN5arrow8internal10ThreadPoolE, i64 16), ptr %0, align 8, !tbaa !3
  %3 = getelementptr inbounds nuw i8, ptr %0, i64 32
  %4 = load i8, ptr %3, align 8, !tbaa !146, !range !46, !noundef !47
  %5 = trunc nuw i8 %4 to i1
  br i1 %5, label %6, label %_ZN5arrow6StatusD2Ev.exit

6:                                                ; preds = %1
  invoke void @_ZN5arrow8internal10ThreadPool8ShutdownEb(ptr dead_on_unwind nonnull writable sret(%"class.arrow::Status") align 8 %2, ptr noundef nonnull align 8 dereferenceable(33) %0, i1 noundef zeroext false)
          to label %7 unwind label %37

7:                                                ; preds = %6
  %8 = load ptr, ptr %2, align 8, !tbaa !78
  %.not.i = icmp eq ptr %8, null
  br i1 %.not.i, label %_ZN5arrow6StatusD2Ev.exit, label %9, !prof !98

9:                                                ; preds = %7
  %10 = getelementptr inbounds nuw i8, ptr %8, i64 1
  %11 = load i8, ptr %10, align 1, !tbaa !99, !range !46, !noundef !47
  %12 = trunc nuw i8 %11 to i1
  br i1 %12, label %_ZN5arrow6StatusD2Ev.exit, label %13

13:                                               ; preds = %9
  call void @_ZN5arrow6Status11DeleteStateEv(ptr noundef nonnull align 8 dereferenceable(8) %2) #33
  br label %_ZN5arrow6StatusD2Ev.exit

_ZN5arrow6StatusD2Ev.exit:                        ; preds = %13, %9, %7, %1
  %14 = getelementptr inbounds nuw i8, ptr %0, i64 16
  %15 = load ptr, ptr %14, align 8, !tbaa !33
  %.not.i.i = icmp eq ptr %15, null
  br i1 %.not.i.i, label %_ZNSt12__shared_ptrIN5arrow8internal10ThreadPool5StateELN9__gnu_cxx12_Lock_policyE2EED2Ev.exit, label %16

16:                                               ; preds = %_ZN5arrow6StatusD2Ev.exit
  %17 = getelementptr inbounds nuw i8, ptr %15, i64 8
  %18 = load atomic i64, ptr %17 acquire, align 8
  %19 = icmp eq i64 %18, 4294967297
  %20 = trunc i64 %18 to i32
  br i1 %19, label %21, label %29

21:                                               ; preds = %16
  store i32 0, ptr %17, align 8, !tbaa !9
  %22 = getelementptr inbounds nuw i8, ptr %15, i64 12
  store i32 0, ptr %22, align 4, !tbaa !13
  %23 = load ptr, ptr %15, align 8, !tbaa !3
  %24 = getelementptr inbounds nuw i8, ptr %23, i64 16
  %25 = load ptr, ptr %24, align 8
  call void %25(ptr noundef nonnull align 8 dereferenceable(16) %15) #33
  %26 = load ptr, ptr %15, align 8, !tbaa !3
  %27 = getelementptr inbounds nuw i8, ptr %26, i64 24
  %28 = load ptr, ptr %27, align 8
  call void %28(ptr noundef nonnull align 8 dereferenceable(16) %15) #33
  br label %_ZNSt12__shared_ptrIN5arrow8internal10ThreadPool5StateELN9__gnu_cxx12_Lock_policyE2EED2Ev.exit

29:                                               ; preds = %16
  %30 = load i8, ptr @__libc_single_threaded, align 1, !tbaa !40
  %.not.i.i.i = icmp eq i8 %30, 0
  br i1 %.not.i.i.i, label %33, label %31

31:                                               ; preds = %29
  %32 = add nsw i32 %20, -1
  store i32 %32, ptr %17, align 4, !tbaa !41
  br label %_ZN9__gnu_cxx27__exchange_and_add_dispatchEPii.exit.i.i.i

33:                                               ; preds = %29
  %34 = atomicrmw volatile add ptr %17, i32 -1 acq_rel, align 4
  br label %_ZN9__gnu_cxx27__exchange_and_add_dispatchEPii.exit.i.i.i

_ZN9__gnu_cxx27__exchange_and_add_dispatchEPii.exit.i.i.i: ; preds = %33, %31
  %.0.i.i.i.i = phi i32 [ %20, %31 ], [ %34, %33 ]
  %35 = icmp eq i32 %.0.i.i.i.i, 1
  br i1 %35, label %36, label %_ZNSt12__shared_ptrIN5arrow8internal10ThreadPool5StateELN9__gnu_cxx12_Lock_policyE2EED2Ev.exit, !prof !43

36:                                               ; preds = %_ZN9__gnu_cxx27__exchange_and_add_dispatchEPii.exit.i.i.i
  call void @_ZNSt16_Sp_counted_baseILN9__gnu_cxx12_Lock_policyE2EE24_M_release_last_use_coldEv(ptr noundef nonnull align 8 dereferenceable(16) %15) #33
  br label %_ZNSt12__shared_ptrIN5arrow8internal10ThreadPool5StateELN9__gnu_cxx12_Lock_policyE2EED2Ev.exit

_ZNSt12__shared_ptrIN5arrow8internal10ThreadPool5StateELN9__gnu_cxx12_Lock_policyE2EED2Ev.exit: ; preds = %_ZN5arrow6StatusD2Ev.exit, %21, %_ZN9__gnu_cxx27__exchange_and_add_dispatchEPii.exit.i.i.i, %36
  ret void

37:                                               ; preds = %6
  %38 = landingpad { ptr, i32 }
          catch ptr null
  %39 = extractvalue { ptr, i32 } %38, 0
  call void @__clang_call_terminate(ptr %39) #31
  unreachable
}